target datalayout = "e-m:e-p270:32:32-p271:32:32-p272:64:64-i64:64-i128:128-f80:128-n8:16:32:64-S128"
target triple = "x86_64-unknown-linux-gnu"

%"class.icu_75::UObject" = type { ptr }
%"class.icu_75::TextTrieMap" = type { ptr, i8, ptr, i32, i32, ptr, i8, ptr }
%"class.icu_75::TimeZoneNamesImpl" = type { %"class.icu_75::TimeZoneNames", %"class.icu_75::Locale", ptr, ptr, ptr, i8, i8, %"class.icu_75::TextTrieMap" }
%"class.icu_75::TimeZoneNames" = type { %"class.icu_75::UObject" }
%"class.icu_75::Locale" = type <{ %"class.icu_75::UObject", [12 x i8], [6 x i8], [4 x i8], [2 x i8], i32, [4 x i8], ptr, [157 x i8], [3 x i8], ptr, i8, [7 x i8] }>

@_ZN6icu_7511TextTrieMapD1Ev = unnamed_addr alias void (ptr), ptr @_ZN6icu_7511TextTrieMapD2Ev

; Function Attrs: mustprogress uwtable
define void @_ZN6icu_7517TimeZoneNamesImpl7cleanupEv(ptr noundef nonnull align 8 dereferenceable(320) %this) #1 align 2 {
entry:
  %this.addr = alloca ptr, align 8
  store ptr %this, ptr %this.addr, align 8
  %this1 = load ptr, ptr %this.addr, align 8
  %fZoneStrings = getelementptr inbounds %"class.icu_75::TimeZoneNamesImpl", ptr %this1, i32 0, i32 2
  %0 = load ptr, ptr %fZoneStrings, align 8
  %cmp = icmp ne ptr %0, null
  br i1 %cmp, label %if.then, label %if.end

if.then:                                          ; preds = %entry
  %fZoneStrings2 = getelementptr inbounds %"class.icu_75::TimeZoneNamesImpl", ptr %this1, i32 0, i32 2
  %1 = load ptr, ptr %fZoneStrings2, align 8
  call void @ures_close_75(ptr noundef %1)
  %fZoneStrings3 = getelementptr inbounds %"class.icu_75::TimeZoneNamesImpl", ptr %this1, i32 0, i32 2
  store ptr null, ptr %fZoneStrings3, align 8
  br label %if.end

if.end:                                           ; preds = %if.then, %entry
  %fMZNamesMap = getelementptr inbounds %"class.icu_75::TimeZoneNamesImpl", ptr %this1, i32 0, i32 4
  %2 = load ptr, ptr %fMZNamesMap, align 8
  %cmp4 = icmp ne ptr %2, null
  br i1 %cmp4, label %if.then5, label %if.end8

if.then5:                                         ; preds = %if.end
  %fMZNamesMap6 = getelementptr inbounds %"class.icu_75::TimeZoneNamesImpl", ptr %this1, i32 0, i32 4
  %3 = load ptr, ptr %fMZNamesMap6, align 8
  call void @uhash_close_75(ptr noundef %3)
  %fMZNamesMap7 = getelementptr inbounds %"class.icu_75::TimeZoneNamesImpl", ptr %this1, i32 0, i32 4
  store ptr null, ptr %fMZNamesMap7, align 8
  br label %if.end8

if.end8:                                          ; preds = %if.then5, %if.end
  %fTZNamesMap = getelementptr inbounds %"class.icu_75::TimeZoneNamesImpl", ptr %this1, i32 0, i32 3
  %4 = load ptr, ptr %fTZNamesMap, align 8
  %cmp9 = icmp ne ptr %4, null
  br i1 %cmp9, label %if.then10, label %if.end13

if.then10:                                        ; preds = %if.end8
  %fTZNamesMap11 = getelementptr inbounds %"class.icu_75::TimeZoneNamesImpl", ptr %this1, i32 0, i32 3
  %5 = load ptr, ptr %fTZNamesMap11, align 8
  call void @uhash_close_75(ptr noundef %5)
  %fTZNamesMap12 = getelementptr inbounds %"class.icu_75::TimeZoneNamesImpl", ptr %this1, i32 0, i32 3
  store ptr null, ptr %fTZNamesMap12, align 8
  br label %if.end13

if.end13:                                         ; preds = %if.then10, %if.end8
  ret void
}

; Function Attrs: mustprogress nounwind uwtable
define void @_ZN6icu_7517TimeZoneNamesImplD2Ev(ptr noundef nonnull align 8 dereferenceable(320) %this) unnamed_addr #0 align 2 personality ptr @__gxx_personality_v0 {
entry:
  %this.addr = alloca ptr, align 8
  store ptr %this, ptr %this.addr, align 8
  %this1 = load ptr, ptr %this.addr, align 8
  store ptr getelementptr inbounds ({ [18 x ptr] }, ptr @_ZTVN6icu_7517TimeZoneNamesImplE, i32 0, i32 0, i32 2), ptr %this1, align 8
  invoke void @_ZN6icu_7517TimeZoneNamesImpl7cleanupEv(ptr noundef nonnull align 8 dereferenceable(320) %this1)
          to label %invoke.cont unwind label %terminate.lpad

invoke.cont:                                      ; preds = %entry
  %fNamesTrie = getelementptr inbounds %"class.icu_75::TimeZoneNamesImpl", ptr %this1, i32 0, i32 7
  call void @_ZN6icu_7511TextTrieMapD1Ev(ptr noundef nonnull align 8 dereferenceable(56) %fNamesTrie) #10
  %fLocale = getelementptr inbounds %"class.icu_75::TimeZoneNamesImpl", ptr %this1, i32 0, i32 1
  call void @_ZN6icu_756LocaleD1Ev(ptr noundef nonnull align 8 dereferenceable(217) %fLocale) #10
  call void @_ZN6icu_7513TimeZoneNamesD2Ev(ptr noundef nonnull align 8 dereferenceable(8) %this1) #10
  ret void

terminate.lpad:                                   ; preds = %entry
  %0 = landingpad { ptr, i32 }
          catch ptr null
  %1 = extractvalue { ptr, i32 } %0, 0
  call void @__clang_call_terminate(ptr %1) #12
  unreachable
}