; Function Attrs: mustprogress nounwind uwtable
define void @_ZN6icu_7517TimeZoneNamesImplD2Ev(ptr noundef nonnull align 8 dereferenceable(320) %this) unnamed_addr #0 align 2 personality ptr @__gxx_personality_v0 {
entry:
  store ptr getelementptr inbounds ({ [18 x ptr] }, ptr @_ZTVN6icu_7517TimeZoneNamesImplE, i64 0, i32 0, i64 2), ptr %this, align 8
  %fZoneStrings.i = getelementptr inbounds i8, ptr %this, i64 232
  %0 = load ptr, ptr %fZoneStrings.i, align 8
  %cmp.not.i = icmp eq ptr %0, null
  br i1 %cmp.not.i, label %if.end.i, label %if.then.i

if.then.i:                                        ; preds = %entry
  invoke void @ures_close_75(ptr noundef nonnull %0)
          to label %.noexc unwind label %terminate.lpad

.noexc:                                           ; preds = %if.then.i
  store ptr null, ptr %fZoneStrings.i, align 8
  br label %if.end.i

if.end.i:                                         ; preds = %.noexc, %entry
  %fMZNamesMap.i = getelementptr inbounds i8, ptr %this, i64 248
  %1 = load ptr, ptr %fMZNamesMap.i, align 8
  %cmp4.not.i = icmp eq ptr %1, null
  br i1 %cmp4.not.i, label %if.end8.i, label %if.then5.i

if.then5.i:                                       ; preds = %if.end.i
  invoke void @uhash_close_75(ptr noundef nonnull %1)
          to label %.noexc1 unwind label %terminate.lpad

.noexc1:                                          ; preds = %if.then5.i
  store ptr null, ptr %fMZNamesMap.i, align 8
  br label %if.end8.i

if.end8.i:                                        ; preds = %.noexc1, %if.end.i
  %fTZNamesMap.i = getelementptr inbounds i8, ptr %this, i64 240
  %2 = load ptr, ptr %fTZNamesMap.i, align 8
  %cmp9.not.i = icmp eq ptr %2, null
  br i1 %cmp9.not.i, label %invoke.cont, label %if.then10.i

if.then10.i:                                      ; preds = %if.end8.i
  invoke void @uhash_close_75(ptr noundef nonnull %2)
          to label %.noexc2 unwind label %terminate.lpad

.noexc2:                                          ; preds = %if.then10.i
  store ptr null, ptr %fTZNamesMap.i, align 8
  br label %invoke.cont

invoke.cont:                                      ; preds = %.noexc2, %if.end8.i
  %fNamesTrie = getelementptr inbounds i8, ptr %this, i64 264
  tail call void @_ZN6icu_7511TextTrieMapD1Ev(ptr noundef nonnull align 8 dereferenceable(56) %fNamesTrie) #20
  %fLocale = getelementptr inbounds i8, ptr %this, i64 8
  tail call void @_ZN6icu_756LocaleD1Ev(ptr noundef nonnull align 8 dereferenceable(217) %fLocale) #20
  tail call void @_ZN6icu_7513TimeZoneNamesD2Ev(ptr noundef nonnull align 8 dereferenceable(8) %this) #20
  ret void

terminate.lpad:                                   ; preds = %if.then10.i, %if.then5.i, %if.then.i
  %3 = landingpad { ptr, i32 }
          catch ptr null
  %4 = extractvalue { ptr, i32 } %3, 0
  tail call void @__clang_call_terminate(ptr %4) #22
  unreachable
}